target datalayout = "e-m:e-p270:32:32-p271:32:32-p272:64:64-i64:64-i128:128-f80:128-n8:16:32:64-S128"
target triple = "x86_64-pc-linux-gnu"

%struct.Mpm_Man_t_ = type { ptr, ptr, i32, i32, i32, ptr, i32, i32, i64, i64, ptr, i32, [33 x ptr], [33 x %struct.Mpm_Uni_t_], %struct.Vec_Ptr_t_, ptr, ptr, [3 x i32], [3 x [33 x ptr]], [3 x [33 x i64]], ptr, i32, i32, [64 x i64], [64 x i64], [64 x i64], [64 x i64], ptr, ptr, ptr, ptr, [720 x [6 x i8]], ptr, [3 x i32], [3 x i32], ptr, %struct.Vec_Int_t_, %struct.Vec_Int_t_, %struct.Vec_Int_t_, %struct.Vec_Int_t_, %struct.Vec_Int_t_, %struct.Vec_Int_t_, %struct.Vec_Int_t_, %struct.Vec_Int_t_, %struct.Vec_Int_t_, [600 x i32], i32, i32, i32, i32, i32, i64, i64, i64, i64, i64, i64, i64 }
%struct.Mpm_Uni_t_ = type { i32, i32, i32, i32, i64, i32, %struct.Mpm_Cut_t_, [11 x i32] }
%struct.Mpm_Cut_t_ = type { i32, i32, [1 x i32] }
%struct.Vec_Ptr_t_ = type { i32, i32, ptr }
%struct.Vec_Int_t_ = type { i32, i32, ptr }
%struct.Mpm_Par_t_ = type { ptr, ptr, i32, i32, i32, i32, i32, i32, i32, i32, i32, i32, i32, i32, i32 }
%struct.SC_Lib_ = type { ptr, ptr, ptr, ptr, float, i32, float, i32, %struct.Vec_Ptr_t_, %struct.Vec_Ptr_t_, %struct.Vec_Ptr_t_, %struct.Vec_Ptr_t_, %struct.Vec_Ptr_t_, ptr, i32 }
%struct.SC_Cell_ = type { ptr, i32, i32, i32, i32, float, float, i32, i32, i32, %struct.Vec_Ptr_t_, i32, i32, ptr, ptr, ptr, ptr, i32, i32 }
%struct.SC_Pin_ = type { ptr, i32, float, float, float, i32, i32, float, float, ptr, %struct.Vec_Wrd_t_, %struct.Vec_Ptr_t_ }
%struct.Vec_Wrd_t_ = type { i32, i32, ptr }
%struct.Vec_Wec_t_ = type { i32, i32, ptr }

@.str = private unnamed_addr constant [48 x i8] c"Skipping cell %s with %d inputs and %d outputs\0A\00", align 1
@.str.1 = private unnamed_addr constant [40 x i8] c"Skipping cell %s with non-DSD function\0A\00", align 1
@.str.2 = private unnamed_addr constant [19 x i8] c"Gate %5d  %-30s : \00", align 1
@.str.3 = private unnamed_addr constant [12 x i8] c"Class %3d  \00", align 1
@.str.4 = private unnamed_addr constant [14 x i8] c"Area %10.3f  \00", align 1
@stdout = external global ptr, align 8
@.str.5 = private unnamed_addr constant [4 x i8] c"   \00", align 1
@.str.6 = private unnamed_addr constant [2 x i8] c"\0A\00", align 1

; Function Attrs: nounwind uwtable
define internal void @Vec_IntGrow(ptr noundef %0, i32 noundef %1) #0 {
  %3 = alloca ptr, align 8
  %4 = alloca i32, align 4
  store ptr %0, ptr %3, align 8
  store i32 %1, ptr %4, align 4
  %5 = load ptr, ptr %3, align 8
  %6 = getelementptr inbounds %struct.Vec_Int_t_, ptr %5, i32 0, i32 0
  %7 = load i32, ptr %6, align 8
  %8 = load i32, ptr %4, align 4
  %9 = icmp sge i32 %7, %8
  br i1 %9, label %10, label %11

10:                                               ; preds = %2
  br label %36

11:                                               ; preds = %2
  %12 = load ptr, ptr %3, align 8
  %13 = getelementptr inbounds %struct.Vec_Int_t_, ptr %12, i32 0, i32 2
  %14 = load ptr, ptr %13, align 8
  %15 = icmp ne ptr %14, null
  br i1 %15, label %16, label %24

16:                                               ; preds = %11
  %17 = load ptr, ptr %3, align 8
  %18 = getelementptr inbounds %struct.Vec_Int_t_, ptr %17, i32 0, i32 2
  %19 = load ptr, ptr %18, align 8
  %20 = load i32, ptr %4, align 4
  %21 = sext i32 %20 to i64
  %22 = mul i64 4, %21
  %23 = call ptr @realloc(ptr noundef %19, i64 noundef %22) #10
  br label %29

24:                                               ; preds = %11
  %25 = load i32, ptr %4, align 4
  %26 = sext i32 %25 to i64
  %27 = mul i64 4, %26
  %28 = call noalias ptr @malloc(i64 noundef %27) #8
  br label %29

29:                                               ; preds = %24, %16
  %30 = phi ptr [ %23, %16 ], [ %28, %24 ]
  %31 = load ptr, ptr %3, align 8
  %32 = getelementptr inbounds %struct.Vec_Int_t_, ptr %31, i32 0, i32 2
  store ptr %30, ptr %32, align 8
  %33 = load i32, ptr %4, align 4
  %34 = load ptr, ptr %3, align 8
  %35 = getelementptr inbounds %struct.Vec_Int_t_, ptr %34, i32 0, i32 0
  store i32 %33, ptr %35, align 8
  br label %36

36:                                               ; preds = %29, %10
  ret void
}

; Function Attrs: nounwind uwtable
define internal ptr @Vec_WecAlloc(i32 noundef %0) #0 {
  %2 = alloca i32, align 4
  %3 = alloca ptr, align 8
  store i32 %0, ptr %2, align 4
  %4 = call noalias ptr @malloc(i64 noundef 16) #8
  store ptr %4, ptr %3, align 8
  %5 = load i32, ptr %2, align 4
  %6 = icmp sgt i32 %5, 0
  br i1 %6, label %7, label %11

7:                                                ; preds = %1
  %8 = load i32, ptr %2, align 4
  %9 = icmp slt i32 %8, 8
  br i1 %9, label %10, label %11

10:                                               ; preds = %7
  store i32 8, ptr %2, align 4
  br label %11

11:                                               ; preds = %10, %7, %1
  %12 = load ptr, ptr %3, align 8
  %13 = getelementptr inbounds %struct.Vec_Wec_t_, ptr %12, i32 0, i32 1
  store i32 0, ptr %13, align 4
  %14 = load i32, ptr %2, align 4
  %15 = load ptr, ptr %3, align 8
  %16 = getelementptr inbounds %struct.Vec_Wec_t_, ptr %15, i32 0, i32 0
  store i32 %14, ptr %16, align 8
  %17 = load ptr, ptr %3, align 8
  %18 = getelementptr inbounds %struct.Vec_Wec_t_, ptr %17, i32 0, i32 0
  %19 = load i32, ptr %18, align 8
  %20 = icmp ne i32 %19, 0
  br i1 %20, label %21, label %27

21:                                               ; preds = %11
  %22 = load ptr, ptr %3, align 8
  %23 = getelementptr inbounds %struct.Vec_Wec_t_, ptr %22, i32 0, i32 0
  %24 = load i32, ptr %23, align 8
  %25 = sext i32 %24 to i64
  %26 = call noalias ptr @calloc(i64 noundef %25, i64 noundef 16) #9
  br label %28

27:                                               ; preds = %11
  br label %28

28:                                               ; preds = %27, %21
  %29 = phi ptr [ %26, %21 ], [ null, %27 ]
  %30 = load ptr, ptr %3, align 8
  %31 = getelementptr inbounds %struct.Vec_Wec_t_, ptr %30, i32 0, i32 2
  store ptr %29, ptr %31, align 8
  %32 = load ptr, ptr %3, align 8
  ret ptr %32
}

; Function Attrs: nounwind uwtable
define internal void @Vec_IntPush(ptr noundef %0, i32 noundef %1) #0 {
  %3 = alloca ptr, align 8
  %4 = alloca i32, align 4
  store ptr %0, ptr %3, align 8
  store i32 %1, ptr %4, align 4
  %5 = load ptr, ptr %3, align 8
  %6 = getelementptr inbounds %struct.Vec_Int_t_, ptr %5, i32 0, i32 1
  %7 = load i32, ptr %6, align 4
  %8 = load ptr, ptr %3, align 8
  %9 = getelementptr inbounds %struct.Vec_Int_t_, ptr %8, i32 0, i32 0
  %10 = load i32, ptr %9, align 8
  %11 = icmp eq i32 %7, %10
  br i1 %11, label %12, label %26

12:                                               ; preds = %2
  %13 = load ptr, ptr %3, align 8
  %14 = getelementptr inbounds %struct.Vec_Int_t_, ptr %13, i32 0, i32 0
  %15 = load i32, ptr %14, align 8
  %16 = icmp slt i32 %15, 16
  br i1 %16, label %17, label %19

17:                                               ; preds = %12
  %18 = load ptr, ptr %3, align 8
  call void @Vec_IntGrow(ptr noundef %18, i32 noundef 16)
  br label %25

19:                                               ; preds = %12
  %20 = load ptr, ptr %3, align 8
  %21 = load ptr, ptr %3, align 8
  %22 = getelementptr inbounds %struct.Vec_Int_t_, ptr %21, i32 0, i32 0
  %23 = load i32, ptr %22, align 8
  %24 = mul nsw i32 2, %23
  call void @Vec_IntGrow(ptr noundef %20, i32 noundef %24)
  br label %25

25:                                               ; preds = %19, %17
  br label %26

26:                                               ; preds = %25, %2
  %27 = load i32, ptr %4, align 4
  %28 = load ptr, ptr %3, align 8
  %29 = getelementptr inbounds %struct.Vec_Int_t_, ptr %28, i32 0, i32 2
  %30 = load ptr, ptr %29, align 8
  %31 = load ptr, ptr %3, align 8
  %32 = getelementptr inbounds %struct.Vec_Int_t_, ptr %31, i32 0, i32 1
  %33 = load i32, ptr %32, align 4
  %34 = add nsw i32 %33, 1
  store i32 %34, ptr %32, align 4
  %35 = sext i32 %33 to i64
  %36 = getelementptr inbounds i32, ptr %30, i64 %35
  store i32 %27, ptr %36, align 4
  ret void
}

; Function Attrs: nounwind uwtable
define internal ptr @Vec_WecEntry(ptr noundef %0, i32 noundef %1) #0 {
  %3 = alloca ptr, align 8
  %4 = alloca i32, align 4
  store ptr %0, ptr %3, align 8
  store i32 %1, ptr %4, align 4
  %5 = load ptr, ptr %3, align 8
  %6 = getelementptr inbounds %struct.Vec_Wec_t_, ptr %5, i32 0, i32 2
  %7 = load ptr, ptr %6, align 8
  %8 = load i32, ptr %4, align 4
  %9 = sext i32 %8 to i64
  %10 = getelementptr inbounds %struct.Vec_Int_t_, ptr %7, i64 %9
  ret ptr %10
}

; Function Attrs: nounwind uwtable
define internal ptr @Vec_WrdArray(ptr noundef %0) #0 {
  %2 = alloca ptr, align 8
  store ptr %0, ptr %2, align 8
  %3 = load ptr, ptr %2, align 8
  %4 = getelementptr inbounds %struct.Vec_Wrd_t_, ptr %3, i32 0, i32 2
  %5 = load ptr, ptr %4, align 8
  ret ptr %5
}

; Function Attrs: nounwind uwtable
define internal ptr @SC_CellPin(ptr noundef %0, i32 noundef %1) #0 {
  %3 = alloca ptr, align 8
  %4 = alloca i32, align 4
  store ptr %0, ptr %3, align 8
  store i32 %1, ptr %4, align 4
  %5 = load ptr, ptr %3, align 8
  %6 = getelementptr inbounds %struct.SC_Cell_, ptr %5, i32 0, i32 10
  %7 = load i32, ptr %4, align 4
  %8 = call ptr @Vec_PtrEntry(ptr noundef %6, i32 noundef %7)
  ret ptr %8
}

; Function Attrs: nounwind uwtable
define internal ptr @Vec_PtrEntry(ptr noundef %0, i32 noundef %1) #0 {
  %3 = alloca ptr, align 8
  %4 = alloca i32, align 4
  store ptr %0, ptr %3, align 8
  store i32 %1, ptr %4, align 4
  %5 = load ptr, ptr %3, align 8
  %6 = getelementptr inbounds %struct.Vec_Ptr_t_, ptr %5, i32 0, i32 2
  %7 = load ptr, ptr %6, align 8
  %8 = load i32, ptr %4, align 4
  %9 = sext i32 %8 to i64
  %10 = getelementptr inbounds ptr, ptr %7, i64 %9
  %11 = load ptr, ptr %10, align 8
  ret ptr %11
}

; Function Attrs: nounwind uwtable
define internal i32 @Vec_PtrSize(ptr noundef %0) #0 {
  %2 = alloca ptr, align 8
  store ptr %0, ptr %2, align 8
  %3 = load ptr, ptr %2, align 8
  %4 = getelementptr inbounds %struct.Vec_Ptr_t_, ptr %3, i32 0, i32 1
  %5 = load i32, ptr %4, align 4
  ret i32 %5
}

; Function Attrs: nounwind uwtable
define internal ptr @Vec_WecStart(i32 noundef %0) #0 {
  %2 = alloca i32, align 4
  %3 = alloca ptr, align 8
  store i32 %0, ptr %2, align 4
  %4 = load i32, ptr %2, align 4
  %5 = call ptr @Vec_WecAlloc(i32 noundef %4)
  store ptr %5, ptr %3, align 8
  %6 = load i32, ptr %2, align 4
  %7 = load ptr, ptr %3, align 8
  %8 = getelementptr inbounds %struct.Vec_Wec_t_, ptr %7, i32 0, i32 1
  store i32 %6, ptr %8, align 4
  %9 = load ptr, ptr %3, align 8
  ret ptr %9
}

; Function Attrs: nounwind uwtable
define ptr @Mpm_ManFindDsdMatches(ptr noundef %0, ptr noundef %1) #0 {
  %3 = alloca ptr, align 8
  %4 = alloca ptr, align 8
  %5 = alloca i32, align 4
  %6 = alloca ptr, align 8
  %7 = alloca ptr, align 8
  %8 = alloca ptr, align 8
  %9 = alloca ptr, align 8
  %10 = alloca i32, align 4
  %11 = alloca i32, align 4
  %12 = alloca i32, align 4
  %13 = alloca i64, align 8
  store ptr %0, ptr %3, align 8
  store ptr %1, ptr %4, align 8
  %14 = load ptr, ptr %3, align 8
  %15 = getelementptr inbounds %struct.Mpm_Man_t_, ptr %14, i32 0, i32 1
  %16 = load ptr, ptr %15, align 8
  %17 = getelementptr inbounds %struct.Mpm_Par_t_, ptr %16, i32 0, i32 14
  %18 = load i32, ptr %17, align 8
  store i32 %18, ptr %5, align 4
  %19 = load ptr, ptr %4, align 8
  store ptr %19, ptr %6, align 8
  %20 = call ptr @Vec_WecStart(i32 noundef 600)
  store ptr %20, ptr %7, align 8
  store i32 0, ptr %10, align 4
  br label %21

21:                                               ; preds = %121, %2
  %22 = load i32, ptr %10, align 4
  %23 = load ptr, ptr %6, align 8
  %24 = getelementptr inbounds %struct.SC_Lib_, ptr %23, i32 0, i32 12
  %25 = call i32 @Vec_PtrSize(ptr noundef %24)
  %26 = icmp slt i32 %22, %25
  br i1 %26, label %27, label %32

27:                                               ; preds = %21
  %28 = load ptr, ptr %6, align 8
  %29 = getelementptr inbounds %struct.SC_Lib_, ptr %28, i32 0, i32 12
  %30 = load i32, ptr %10, align 4
  %31 = call ptr @Vec_PtrEntry(ptr noundef %29, i32 noundef %30)
  store ptr %31, ptr %9, align 8
  br label %32

32:                                               ; preds = %27, %21
  %33 = phi i1 [ false, %21 ], [ true, %27 ]
  br i1 %33, label %34, label %124

34:                                               ; preds = %32
  %35 = load ptr, ptr %9, align 8
  %36 = getelementptr inbounds %struct.SC_Cell_, ptr %35, i32 0, i32 11
  %37 = load i32, ptr %36, align 8
  %38 = icmp sgt i32 %37, 6
  br i1 %38, label %44, label %39

39:                                               ; preds = %34
  %40 = load ptr, ptr %9, align 8
  %41 = getelementptr inbounds %struct.SC_Cell_, ptr %40, i32 0, i32 12
  %42 = load i32, ptr %41, align 4
  %43 = icmp sgt i32 %42, 1
  br i1 %43, label %44, label %59

44:                                               ; preds = %39, %34
  %45 = load i32, ptr %5, align 4
  %46 = icmp ne i32 %45, 0
  br i1 %46, label %47, label %58

47:                                               ; preds = %44
  %48 = load ptr, ptr %9, align 8
  %49 = getelementptr inbounds %struct.SC_Cell_, ptr %48, i32 0, i32 0
  %50 = load ptr, ptr %49, align 8
  %51 = load ptr, ptr %9, align 8
  %52 = getelementptr inbounds %struct.SC_Cell_, ptr %51, i32 0, i32 11
  %53 = load i32, ptr %52, align 8
  %54 = load ptr, ptr %9, align 8
  %55 = getelementptr inbounds %struct.SC_Cell_, ptr %54, i32 0, i32 12
  %56 = load i32, ptr %55, align 4
  %57 = call i32 (ptr, ...) @printf(ptr noundef @.str, ptr noundef %50, i32 noundef %53, i32 noundef %56)
  br label %58

58:                                               ; preds = %47, %44
  br label %121

59:                                               ; preds = %39
  %60 = load ptr, ptr %9, align 8
  %61 = load ptr, ptr %9, align 8
  %62 = getelementptr inbounds %struct.SC_Cell_, ptr %61, i32 0, i32 11
  %63 = load i32, ptr %62, align 8
  %64 = call ptr @SC_CellPin(ptr noundef %60, i32 noundef %63)
  %65 = getelementptr inbounds %struct.SC_Pin_, ptr %64, i32 0, i32 10
  %66 = call ptr @Vec_WrdArray(ptr noundef %65)
  %67 = load i64, ptr %66, align 8
  store i64 %67, ptr %13, align 8
  %68 = load ptr, ptr %3, align 8
  %69 = load i64, ptr %13, align 8
  %70 = call i32 @Mpm_CutCheckDsd6(ptr noundef %68, i64 noundef %69)
  store i32 %70, ptr %11, align 4
  %71 = load i32, ptr %11, align 4
  %72 = icmp eq i32 %71, -1
  br i1 %72, label %73, label %82

73:                                               ; preds = %59
  %74 = load i32, ptr %5, align 4
  %75 = icmp ne i32 %74, 0
  br i1 %75, label %76, label %81

76:                                               ; preds = %73
  %77 = load ptr, ptr %9, align 8
  %78 = getelementptr inbounds %struct.SC_Cell_, ptr %77, i32 0, i32 0
  %79 = load ptr, ptr %78, align 8
  %80 = call i32 (ptr, ...) @printf(ptr noundef @.str.1, ptr noundef %79)
  br label %81

81:                                               ; preds = %76, %73
  br label %121

82:                                               ; preds = %59
  %83 = load i32, ptr %11, align 4
  %84 = ashr i32 %83, 17
  store i32 %84, ptr %12, align 4
  %85 = load ptr, ptr %9, align 8
  %86 = getelementptr inbounds %struct.SC_Cell_, ptr %85, i32 0, i32 1
  %87 = load i32, ptr %86, align 8
  %88 = shl i32 %87, 17
  %89 = load i32, ptr %11, align 4
  %90 = and i32 %89, 131071
  %91 = or i32 %88, %90
  store i32 %91, ptr %11, align 4
  %92 = load ptr, ptr %7, align 8
  %93 = load i32, ptr %12, align 4
  %94 = call ptr @Vec_WecEntry(ptr noundef %92, i32 noundef %93)
  store ptr %94, ptr %8, align 8
  %95 = load ptr, ptr %8, align 8
  %96 = load i32, ptr %11, align 4
  call void @Vec_IntPush(ptr noundef %95, i32 noundef %96)
  %97 = load i32, ptr %5, align 4
  %98 = icmp ne i32 %97, 0
  br i1 %98, label %100, label %99

99:                                               ; preds = %82
  br label %121

100:                                              ; preds = %82
  %101 = load ptr, ptr %9, align 8
  %102 = getelementptr inbounds %struct.SC_Cell_, ptr %101, i32 0, i32 1
  %103 = load i32, ptr %102, align 8
  %104 = load ptr, ptr %9, align 8
  %105 = getelementptr inbounds %struct.SC_Cell_, ptr %104, i32 0, i32 0
  %106 = load ptr, ptr %105, align 8
  %107 = call i32 (ptr, ...) @printf(ptr noundef @.str.2, i32 noundef %103, ptr noundef %106)
  %108 = load i32, ptr %12, align 4
  %109 = call i32 (ptr, ...) @printf(ptr noundef @.str.3, i32 noundef %108)
  %110 = load ptr, ptr %9, align 8
  %111 = getelementptr inbounds %struct.SC_Cell_, ptr %110, i32 0, i32 5
  %112 = load float, ptr %111, align 8
  %113 = fpext float %112 to double
  %114 = call i32 (ptr, ...) @printf(ptr noundef @.str.4, double noundef %113)
  %115 = load ptr, ptr @stdout, align 8
  call void @Extra_PrintBinary(ptr noundef %115, ptr noundef %11, i32 noundef 17)
  %116 = call i32 (ptr, ...) @printf(ptr noundef @.str.5)
  %117 = load ptr, ptr %9, align 8
  %118 = getelementptr inbounds %struct.SC_Cell_, ptr %117, i32 0, i32 11
  %119 = load i32, ptr %118, align 8
  call void @Kit_DsdPrintFromTruth(ptr noundef %13, i32 noundef %119)
  %120 = call i32 (ptr, ...) @printf(ptr noundef @.str.6)
  br label %121

121:                                              ; preds = %100, %99, %81, %58
  %122 = load i32, ptr %10, align 4
  %123 = add nsw i32 %122, 1
  store i32 %123, ptr %10, align 4
  br label %21, !llvm.loop !4

124:                                              ; preds = %32
  %125 = load ptr, ptr %7, align 8
  ret ptr %125
}