; Function Attrs: nounwind uwtable
define noalias noundef ptr @Mpm_ManFindDsdMatches(ptr noundef %0, ptr noundef readonly captures(none) %1) local_unnamed_addr #0 {
  %3 = alloca i32, align 4
  %4 = alloca i64, align 8
  %5 = getelementptr inbounds nuw i8, ptr %0, i64 8
  %6 = load ptr, ptr %5, align 8
  %7 = getelementptr inbounds nuw i8, ptr %6, i64 64
  %8 = load i32, ptr %7, align 8
  %9 = tail call noalias dereferenceable_or_null(16) ptr @malloc(i64 noundef 16) #9
  %10 = getelementptr inbounds nuw i8, ptr %9, i64 4
  store i32 600, ptr %9, align 8
  %11 = tail call noalias dereferenceable_or_null(9600) ptr @calloc(i64 noundef 600, i64 noundef 16) #10
  %12 = getelementptr inbounds nuw i8, ptr %9, i64 8
  store ptr %11, ptr %12, align 8
  store i32 600, ptr %10, align 4
  %13 = getelementptr i8, ptr %1, i64 116
  %.val36 = load i32, ptr %13, align 4
  %14 = icmp sgt i32 %.val36, 0
  br i1 %14, label %.lr.ph, label %.critedge

.lr.ph:                                           ; preds = %2
  %15 = getelementptr i8, ptr %1, i64 120
  %.not = icmp eq i32 %8, 0
  br label %16

16:                                               ; preds = %.lr.ph, %97
  %indvars.iv = phi i64 [ 0, %.lr.ph ], [ %indvars.iv.next, %97 ]
  %.val32 = load ptr, ptr %15, align 8
  %17 = getelementptr inbounds nuw ptr, ptr %.val32, i64 %indvars.iv
  %18 = load ptr, ptr %17, align 8
  %19 = getelementptr inbounds nuw i8, ptr %18, i64 64
  %20 = load i32, ptr %19, align 8
  %21 = icmp sgt i32 %20, 6
  br i1 %21, label %26, label %22

22:                                               ; preds = %16
  %23 = getelementptr inbounds nuw i8, ptr %18, i64 68
  %24 = load i32, ptr %23, align 4
  %25 = icmp sgt i32 %24, 1
  br i1 %25, label %26, label %32

26:                                               ; preds = %22, %16
  br i1 %.not, label %97, label %27

27:                                               ; preds = %26
  %28 = load ptr, ptr %18, align 8
  %29 = getelementptr inbounds nuw i8, ptr %18, i64 68
  %30 = load i32, ptr %29, align 4
  %31 = call i32 (ptr, ...) @printf(ptr noundef nonnull dereferenceable(1) @.str, ptr noundef %28, i32 noundef %20, i32 noundef %30)
  br label %97

32:                                               ; preds = %22
  %33 = getelementptr i8, ptr %18, i64 56
  %.val33 = load ptr, ptr %33, align 8
  %34 = sext i32 %20 to i64
  %35 = getelementptr inbounds ptr, ptr %.val33, i64 %34
  %36 = load ptr, ptr %35, align 8
  %37 = getelementptr i8, ptr %36, i64 56
  %.val34 = load ptr, ptr %37, align 8
  %38 = load i64, ptr %.val34, align 8
  store i64 %38, ptr %4, align 8
  %39 = call i32 @Mpm_CutCheckDsd6(ptr noundef %0, i64 noundef %38) #11
  store i32 %39, ptr %3, align 4
  %40 = icmp eq i32 %39, -1
  br i1 %40, label %41, label %45

41:                                               ; preds = %32
  br i1 %.not, label %97, label %42

42:                                               ; preds = %41
  %43 = load ptr, ptr %18, align 8
  %44 = call i32 (ptr, ...) @printf(ptr noundef nonnull dereferenceable(1) @.str.1, ptr noundef %43)
  br label %97

45:                                               ; preds = %32
  %46 = ashr i32 %39, 17
  %47 = getelementptr inbounds nuw i8, ptr %18, i64 8
  %48 = load i32, ptr %47, align 8
  %49 = shl i32 %48, 17
  %50 = and i32 %39, 131071
  %51 = or disjoint i32 %49, %50
  store i32 %51, ptr %3, align 4
  %.val35 = load ptr, ptr %12, align 8
  %52 = sext i32 %46 to i64
  %53 = getelementptr inbounds %struct.Vec_Int_t_, ptr %.val35, i64 %52
  %54 = getelementptr inbounds nuw i8, ptr %53, i64 4
  %55 = load i32, ptr %54, align 4
  %56 = load i32, ptr %53, align 8
  %57 = icmp eq i32 %55, %56
  br i1 %57, label %58, label %.Vec_IntGrow.exit10_crit_edge.i

.Vec_IntGrow.exit10_crit_edge.i:                  ; preds = %45
  %.phi.trans.insert.i = getelementptr inbounds nuw i8, ptr %53, i64 8
  %.pre.i = load ptr, ptr %.phi.trans.insert.i, align 8
  br label %Vec_IntPush.exit

58:                                               ; preds = %45
  %59 = icmp slt i32 %55, 16
  br i1 %59, label %60, label %68

60:                                               ; preds = %58
  %61 = getelementptr inbounds nuw i8, ptr %53, i64 8
  %62 = load ptr, ptr %61, align 8
  %.not9.i.i = icmp eq ptr %62, null
  br i1 %.not9.i.i, label %65, label %63

63:                                               ; preds = %60
  %64 = call dereferenceable_or_null(64) ptr @realloc(ptr noundef nonnull %62, i64 noundef 64) #12
  br label %Vec_IntGrow.exit.i

65:                                               ; preds = %60
  %66 = call noalias dereferenceable_or_null(64) ptr @malloc(i64 noundef 64) #9
  br label %Vec_IntGrow.exit.i

Vec_IntGrow.exit.i:                               ; preds = %65, %63
  %67 = phi ptr [ %64, %63 ], [ %66, %65 ]
  store ptr %67, ptr %61, align 8
  store i32 16, ptr %53, align 8
  br label %Vec_IntPush.exit

68:                                               ; preds = %58
  %69 = shl nuw nsw i32 %55, 1
  %70 = getelementptr inbounds nuw i8, ptr %53, i64 8
  %71 = load ptr, ptr %70, align 8
  %.not9.i9.i = icmp eq ptr %71, null
  %72 = zext nneg i32 %69 to i64
  %73 = shl nuw nsw i64 %72, 2
  br i1 %.not9.i9.i, label %76, label %74

74:                                               ; preds = %68
  %75 = call ptr @realloc(ptr noundef nonnull %71, i64 noundef %73) #12
  br label %78

76:                                               ; preds = %68
  %77 = call noalias ptr @malloc(i64 noundef %73) #9
  br label %78

78:                                               ; preds = %76, %74
  %79 = phi ptr [ %75, %74 ], [ %77, %76 ]
  store ptr %79, ptr %70, align 8
  store i32 %69, ptr %53, align 8
  br label %Vec_IntPush.exit

Vec_IntPush.exit:                                 ; preds = %.Vec_IntGrow.exit10_crit_edge.i, %Vec_IntGrow.exit.i, %78
  %80 = phi ptr [ %.pre.i, %.Vec_IntGrow.exit10_crit_edge.i ], [ %79, %78 ], [ %67, %Vec_IntGrow.exit.i ]
  %81 = load i32, ptr %54, align 4
  %82 = add nsw i32 %81, 1
  store i32 %82, ptr %54, align 4
  %83 = sext i32 %81 to i64
  %84 = getelementptr inbounds i32, ptr %80, i64 %83
  store i32 %51, ptr %84, align 4
  br i1 %.not, label %97, label %85

85:                                               ; preds = %Vec_IntPush.exit
  %86 = load i32, ptr %47, align 8
  %87 = load ptr, ptr %18, align 8
  %88 = call i32 (ptr, ...) @printf(ptr noundef nonnull dereferenceable(1) @.str.2, i32 noundef %86, ptr noundef %87)
  %89 = call i32 (ptr, ...) @printf(ptr noundef nonnull dereferenceable(1) @.str.3, i32 noundef %46)
  %90 = getelementptr inbounds nuw i8, ptr %18, i64 24
  %91 = load float, ptr %90, align 8
  %92 = fpext float %91 to double
  %93 = call i32 (ptr, ...) @printf(ptr noundef nonnull dereferenceable(1) @.str.4, double noundef %92)
  %94 = load ptr, ptr @stdout, align 8
  call void @Extra_PrintBinary(ptr noundef %94, ptr noundef nonnull %3, i32 noundef 17) #11
  %95 = call i32 (ptr, ...) @printf(ptr noundef nonnull dereferenceable(1) @.str.5)
  %96 = load i32, ptr %19, align 8
  call void @Kit_DsdPrintFromTruth(ptr noundef nonnull %4, i32 noundef %96) #11
  %putchar = call i32 @putchar(i32 10)
  br label %97

97:                                               ; preds = %Vec_IntPush.exit, %41, %42, %26, %27, %85
  %indvars.iv.next = add nuw nsw i64 %indvars.iv, 1
  %.val = load i32, ptr %13, align 4
  %98 = sext i32 %.val to i64
  %99 = icmp slt i64 %indvars.iv.next, %98
  br i1 %99, label %16, label %.critedge, !llvm.loop !4

.critedge:                                        ; preds = %97, %2
  ret ptr %9
}